target datalayout = "e-m:e-p270:32:32-p271:32:32-p272:64:64-i64:64-i128:128-f80:128-n8:16:32:64-S128"
target triple = "x86_64-pc-linux-gnu"

%class.rewriter_core = type { ptr, ptr, i8, i8, %class.ptr_vector, ptr, %class.svector, %class.ref_vector, %class.ptr_vector, ptr, %class.ref_vector.3, %class.obj_hashtable, ptr, i32, %class.svector.8 }
%class.svector = type { %class.vector.0 }
%class.vector.0 = type { ptr }
%class.ref_vector = type { %class.ref_vector_core }
%class.ref_vector_core = type { %class.ref_manager_wrapper, %class.ptr_vector.1 }
%class.ref_manager_wrapper = type { ptr }
%class.ptr_vector.1 = type { %class.vector.2 }
%class.vector.2 = type { ptr }
%class.ptr_vector = type { %class.vector }
%class.vector = type { ptr }
%class.ref_vector.3 = type { %class.ref_vector_core.4 }
%class.ref_vector_core.4 = type { %class.ref_manager_wrapper.5, %class.ptr_vector.6 }
%class.ref_manager_wrapper.5 = type { ptr }
%class.ptr_vector.6 = type { %class.vector.7 }
%class.vector.7 = type { ptr }
%class.obj_hashtable = type { %class.core_hashtable.base, [4 x i8] }
%class.core_hashtable.base = type <{ ptr, i32, i32, i32 }>
%class.svector.8 = type { %class.vector.9 }
%class.vector.9 = type { ptr }
%class.rewriter_tpl = type { %class.rewriter_core, ptr, i32, %class.ptr_vector.1, %class.var_shifter, %class.inv_var_shifter, %class.obj_ref, %class.obj_ref.10, %class.obj_ref.10, %class.svector.11 }
%class.var_shifter = type <{ %class.var_shifter_core, i32, i32, i32, [4 x i8] }>
%class.var_shifter_core = type { %class.rewriter_core }
%class.inv_var_shifter = type <{ %class.var_shifter_core, i32, [4 x i8] }>
%class.obj_ref = type { ptr, ptr }
%class.obj_ref.10 = type { ptr, ptr }
%class.svector.11 = type { %class.vector.12 }
%class.vector.12 = type { ptr }
%"struct.qembp::app_const_arr_rewriter" = type { ptr, %class.array_util, %"class.datatype::util", %class.model_evaluator, %class.obj_ref }
%class.array_util = type { %class.array_recognizers, ptr }
%class.array_recognizers = type { i32 }
%"class.datatype::util" = type { ptr, i32, ptr }
%class.model_evaluator = type { ptr }

@_ZN12rewriter_tplIN5qembp22app_const_arr_rewriterEEC1ER11ast_managerbRS1_ = weak_odr hidden unnamed_addr alias void (ptr, ptr, i1, ptr), ptr @_ZN12rewriter_tplIN5qembp22app_const_arr_rewriterEEC2ER11ast_managerbRS1_

; Function Attrs: mustprogress uwtable
define weak_odr hidden void @_ZN12rewriter_tplIN5qembp22app_const_arr_rewriterEEclEP4exprR7obj_refIS3_11ast_managerE(ptr noundef nonnull align 8 dereferenceable(536) %0, ptr noundef %1, ptr noundef nonnull align 8 dereferenceable(16) %2) #5 comdat align 2 {
  %4 = alloca ptr, align 8
  %5 = alloca ptr, align 8
  %6 = alloca ptr, align 8
  store ptr %0, ptr %4, align 8, !tbaa !3
  store ptr %1, ptr %5, align 8, !tbaa !12
  store ptr %2, ptr %6, align 8, !tbaa !180
  %7 = load ptr, ptr %4, align 8
  %8 = load ptr, ptr %5, align 8, !tbaa !12
  %9 = load ptr, ptr %6, align 8, !tbaa !180
  %10 = getelementptr inbounds nuw %class.rewriter_tpl, ptr %7, i32 0, i32 7
  call void @_ZN12rewriter_tplIN5qembp22app_const_arr_rewriterEEclEP4exprR7obj_refIS3_11ast_managerERS5_I3appS6_E(ptr noundef nonnull align 8 dereferenceable(536) %7, ptr noundef %8, ptr noundef nonnull align 8 dereferenceable(16) %9, ptr noundef nonnull align 8 dereferenceable(16) %10)
  ret void
}

; Function Attrs: mustprogress nounwind uwtable
define linkonce_odr hidden noundef nonnull align 8 dereferenceable(976) ptr @_ZNK7obj_refI4expr11ast_managerE1mEv(ptr noundef nonnull align 8 dereferenceable(16) %0) #4 comdat align 2 {
  %2 = alloca ptr, align 8
  store ptr %0, ptr %2, align 8, !tbaa !180
  %3 = load ptr, ptr %2, align 8
  %4 = getelementptr inbounds nuw %class.obj_ref, ptr %3, i32 0, i32 1
  %5 = load ptr, ptr %4, align 8, !tbaa !182
  ret ptr %5
}

; Function Attrs: mustprogress uwtable
define hidden void @_Z20rewrite_as_const_arrP4exprR5modelR7obj_refIS_11ast_managerE(ptr noundef %0, ptr noundef nonnull align 8 dereferenceable(160) %1, ptr noundef nonnull align 8 dereferenceable(16) %2) #5 personality ptr @__gxx_personality_v0 {
  %4 = alloca ptr, align 8
  %5 = alloca ptr, align 8
  %6 = alloca ptr, align 8
  %7 = alloca %"struct.qembp::app_const_arr_rewriter", align 8
  %8 = alloca %class.rewriter_tpl, align 8
  %9 = alloca ptr, align 8
  %10 = alloca i32, align 4
  store ptr %0, ptr %4, align 8, !tbaa !12
  store ptr %1, ptr %5, align 8, !tbaa !231
  store ptr %2, ptr %6, align 8, !tbaa !180
  call void @llvm.lifetime.start.p0(i64 72, ptr %7) #3
  %11 = load ptr, ptr %6, align 8, !tbaa !180
  %12 = call noundef nonnull align 8 dereferenceable(976) ptr @_ZNK7obj_refI4expr11ast_managerE1mEv(ptr noundef nonnull align 8 dereferenceable(16) %11)
  %13 = load ptr, ptr %5, align 8, !tbaa !231
  call void @_ZN5qembp22app_const_arr_rewriterC2ER11ast_managerR5model(ptr noundef nonnull align 8 dereferenceable(72) %7, ptr noundef nonnull align 8 dereferenceable(976) %12, ptr noundef nonnull align 8 dereferenceable(160) %13)
  call void @llvm.lifetime.start.p0(i64 536, ptr %8) #3
  %14 = load ptr, ptr %6, align 8, !tbaa !180
  %15 = invoke noundef nonnull align 8 dereferenceable(976) ptr @_ZNK7obj_refI4expr11ast_managerE1mEv(ptr noundef nonnull align 8 dereferenceable(16) %14)
          to label %16 unwind label %21

16:                                               ; preds = %3
  invoke void @_ZN12rewriter_tplIN5qembp22app_const_arr_rewriterEEC1ER11ast_managerbRS1_(ptr noundef nonnull align 8 dereferenceable(536) %8, ptr noundef nonnull align 8 dereferenceable(976) %15, i1 noundef zeroext false, ptr noundef nonnull align 8 dereferenceable(72) %7)
          to label %17 unwind label %21

17:                                               ; preds = %16
  %18 = load ptr, ptr %4, align 8, !tbaa !12
  %19 = load ptr, ptr %6, align 8, !tbaa !180
  invoke void @_ZN12rewriter_tplIN5qembp22app_const_arr_rewriterEEclEP4exprR7obj_refIS3_11ast_managerE(ptr noundef nonnull align 8 dereferenceable(536) %8, ptr noundef %18, ptr noundef nonnull align 8 dereferenceable(16) %19)
          to label %20 unwind label %25

20:                                               ; preds = %17
  call void @_ZN12rewriter_tplIN5qembp22app_const_arr_rewriterEED2Ev(ptr noundef nonnull align 8 dereferenceable(536) %8) #3
  call void @llvm.lifetime.end.p0(i64 536, ptr %8) #3
  call void @_ZN5qembp22app_const_arr_rewriterD2Ev(ptr noundef nonnull align 8 dereferenceable(72) %7) #3
  call void @llvm.lifetime.end.p0(i64 72, ptr %7) #3
  ret void

21:                                               ; preds = %16, %3
  %22 = landingpad { ptr, i32 }
          cleanup
  %23 = extractvalue { ptr, i32 } %22, 0
  store ptr %23, ptr %9, align 8
  %24 = extractvalue { ptr, i32 } %22, 1
  store i32 %24, ptr %10, align 4
  br label %29

25:                                               ; preds = %17
  %26 = landingpad { ptr, i32 }
          cleanup
  %27 = extractvalue { ptr, i32 } %26, 0
  store ptr %27, ptr %9, align 8
  %28 = extractvalue { ptr, i32 } %26, 1
  store i32 %28, ptr %10, align 4
  call void @_ZN12rewriter_tplIN5qembp22app_const_arr_rewriterEED2Ev(ptr noundef nonnull align 8 dereferenceable(536) %8) #3
  br label %29

29:                                               ; preds = %25, %21
  call void @llvm.lifetime.end.p0(i64 536, ptr %8) #3
  call void @_ZN5qembp22app_const_arr_rewriterD2Ev(ptr noundef nonnull align 8 dereferenceable(72) %7) #3
  call void @llvm.lifetime.end.p0(i64 72, ptr %7) #3
  br label %30

30:                                               ; preds = %29
  %31 = load ptr, ptr %9, align 8
  %32 = load i32, ptr %10, align 4
  %33 = insertvalue { ptr, i32 } poison, ptr %31, 0
  %34 = insertvalue { ptr, i32 } %33, i32 %32, 1
  resume { ptr, i32 } %34
}