; Function Attrs: mustprogress uwtable
define hidden void @_Z20rewrite_as_const_arrP4exprR5modelR7obj_refIS_11ast_managerE(ptr noundef %0, ptr noundef nonnull align 8 dereferenceable(160) %1, ptr noundef nonnull align 8 dereferenceable(16) %2) local_unnamed_addr #4 personality ptr @__gxx_personality_v0 {
  %4 = alloca %"struct.qembp::app_const_arr_rewriter", align 8
  %5 = alloca %class.rewriter_tpl, align 8
  call void @llvm.lifetime.start.p0(i64 72, ptr nonnull %4) #19
  %6 = getelementptr inbounds nuw i8, ptr %2, i64 8
  %7 = load ptr, ptr %6, align 8, !tbaa !138
  call void @_ZN5qembp22app_const_arr_rewriterC2ER11ast_managerR5model(ptr noundef nonnull align 8 dereferenceable(72) %4, ptr noundef nonnull align 8 dereferenceable(976) %7, ptr noundef nonnull align 8 dereferenceable(160) %1)
  call void @llvm.lifetime.start.p0(i64 536, ptr nonnull %5) #19
  %8 = load ptr, ptr %6, align 8, !tbaa !138
  invoke void @_ZN12rewriter_tplIN5qembp22app_const_arr_rewriterEEC1ER11ast_managerbRS1_(ptr noundef nonnull align 8 dereferenceable(536) %5, ptr noundef nonnull align 8 dereferenceable(976) %8, i1 noundef zeroext false, ptr noundef nonnull align 8 dereferenceable(72) %4)
          to label %9 unwind label %25

9:                                                ; preds = %3
  %10 = getelementptr inbounds nuw i8, ptr %5, i64 496
  invoke void @_ZN12rewriter_tplIN5qembp22app_const_arr_rewriterEEclEP4exprR7obj_refIS3_11ast_managerERS5_I3appS6_E(ptr noundef nonnull align 8 dereferenceable(536) %5, ptr noundef %0, ptr noundef nonnull align 8 dereferenceable(16) %2, ptr noundef nonnull align 8 dereferenceable(16) %10)
          to label %_ZN12rewriter_tplIN5qembp22app_const_arr_rewriterEEclEP4exprR7obj_refIS3_11ast_managerE.exit unwind label %27

_ZN12rewriter_tplIN5qembp22app_const_arr_rewriterEEclEP4exprR7obj_refIS3_11ast_managerE.exit: ; preds = %9
  call void @_ZN12rewriter_tplIN5qembp22app_const_arr_rewriterEED2Ev(ptr noundef nonnull align 8 dereferenceable(536) %5) #19
  call void @llvm.lifetime.end.p0(i64 536, ptr nonnull %5) #19
  %11 = getelementptr inbounds nuw i8, ptr %4, i64 56
  %12 = load ptr, ptr %11, align 8, !tbaa !136
  %.not.i.i.i = icmp eq ptr %12, null
  br i1 %.not.i.i.i, label %_ZN5qembp22app_const_arr_rewriterD2Ev.exit, label %13

13:                                               ; preds = %_ZN12rewriter_tplIN5qembp22app_const_arr_rewriterEEclEP4exprR7obj_refIS3_11ast_managerE.exit
  %14 = getelementptr inbounds nuw i8, ptr %4, i64 64
  %15 = load ptr, ptr %14, align 8, !tbaa !138
  %16 = getelementptr inbounds nuw i8, ptr %12, i64 8
  %17 = load i32, ptr %16, align 4, !tbaa !53
  %18 = add i32 %17, -1
  store i32 %18, ptr %16, align 4, !tbaa !53
  %19 = icmp eq i32 %18, 0
  br i1 %19, label %20, label %_ZN5qembp22app_const_arr_rewriterD2Ev.exit

20:                                               ; preds = %13
  invoke void @_ZN11ast_manager11delete_nodeEP3ast(ptr noundef nonnull align 8 dereferenceable(976) %15, ptr noundef nonnull %12)
          to label %_ZN5qembp22app_const_arr_rewriterD2Ev.exit unwind label %21

21:                                               ; preds = %20
  %22 = landingpad { ptr, i32 }
          catch ptr null
  %23 = extractvalue { ptr, i32 } %22, 0
  call void @__clang_call_terminate(ptr %23) #22
  unreachable

_ZN5qembp22app_const_arr_rewriterD2Ev.exit:       ; preds = %_ZN12rewriter_tplIN5qembp22app_const_arr_rewriterEEclEP4exprR7obj_refIS3_11ast_managerE.exit, %13, %20
  %24 = getelementptr inbounds nuw i8, ptr %4, i64 48
  call void @_ZN15model_evaluatorD1Ev(ptr noundef nonnull align 8 dereferenceable(8) %24) #19
  call void @llvm.lifetime.end.p0(i64 72, ptr nonnull %4) #19
  ret void

25:                                               ; preds = %3
  %26 = landingpad { ptr, i32 }
          cleanup
  br label %29

27:                                               ; preds = %9
  %28 = landingpad { ptr, i32 }
          cleanup
  call void @_ZN12rewriter_tplIN5qembp22app_const_arr_rewriterEED2Ev(ptr noundef nonnull align 8 dereferenceable(536) %5) #19
  br label %29

29:                                               ; preds = %27, %25
  %.pn = phi { ptr, i32 } [ %28, %27 ], [ %26, %25 ]
  call void @llvm.lifetime.end.p0(i64 536, ptr nonnull %5) #19
  call void @_ZN5qembp22app_const_arr_rewriterD2Ev(ptr noundef nonnull align 8 dereferenceable(72) %4) #19
  call void @llvm.lifetime.end.p0(i64 72, ptr nonnull %4) #19
  resume { ptr, i32 } %.pn
}